CCS PCH C Compiler, Version 5.015, 5967               02-abr-18 23:55

               Filename:   C:\Users\VAIO\Desktop\class_micro\CCS C Projects\display_doble\display_doble.lst

               ROM used:   196 bytes (1%)
                           Largest free fragment is 32572
               RAM used:   5 (0%) at main() level
                           8 (0%) worst case
               Stack used: 1 locations
               Stack size: 31

*
0000:  GOTO   0044
.................... #include <display_doble.h> 
.................... #include <18LF4550.h> 
.................... //////////// Standard Header file for the PIC18LF4550 device //////////////// 
.................... /////////////////////////////////////////////////////////////////////////// 
.................... ////        (C) Copyright 1996, 2013 Custom Computer Services          //// 
.................... //// This source code may only be used by licensed users of the CCS C  //// 
.................... //// compiler.  This source code may only be distributed to other      //// 
.................... //// licensed users of the CCS C compiler.  No other use, reproduction //// 
.................... //// or distribution is permitted without written permission.          //// 
.................... //// Derivative programs created using this software in object code    //// 
.................... //// form are not restricted in any way.                               //// 
.................... /////////////////////////////////////////////////////////////////////////// 
.................... #device PIC18LF4550 
0004:  CLRF   FF7
0006:  ADDLW  14
0008:  MOVWF  FF6
000A:  MOVLW  00
000C:  ADDWFC FF7,F
000E:  TBLRD*+
0010:  MOVF   FF5,W
0012:  RETURN 0
0014:  DATA 3F,06
0016:  DATA 5B,4F
0018:  DATA 66,6D
001A:  DATA FD,07
001C:  DATA FF,67
....................  
.................... #list 
....................  
.................... #device ADC=16 
....................  
.................... #FUSES NOWDT                 	//No Watch Dog Timer 
.................... #FUSES WDT128                	//Watch Dog Timer uses 1:128 Postscale 
.................... #FUSES NOBROWNOUT            	//No brownout reset 
.................... #FUSES NOLVP                 	//No low voltage prgming, B3(PIC16) or B5(PIC18) used for I/O 
.................... #FUSES NOXINST               	//Extended set extension and Indexed Addressing mode disabled (Legacy mode) 
....................  
.................... #use delay(crystal=20000000) 
001E:  CLRF   FEA
0020:  MOVLW  08
0022:  MOVWF  FE9
0024:  MOVF   FEF,W
0026:  BZ    0042
0028:  MOVLW  06
002A:  MOVWF  01
002C:  CLRF   00
002E:  DECFSZ 00,F
0030:  BRA    002E
0032:  DECFSZ 01,F
0034:  BRA    002C
0036:  MOVLW  7B
0038:  MOVWF  00
003A:  DECFSZ 00,F
003C:  BRA    003A
003E:  DECFSZ FEF,F
0040:  BRA    0028
0042:  RETURN 0
....................  
....................  
.................... #use fast_io(D) 
.................... #use fast_io(B) 
....................  
.................... void main() 
0044:  CLRF   FF8
0046:  BCF    FD0.7
0048:  MOVF   FC1,W
004A:  ANDLW  C0
004C:  IORLW  0F
004E:  MOVWF  FC1
0050:  MOVLW  07
0052:  MOVWF  FB4
.................... { 
....................    set_tris_d(0); //configuración del PORT D, como salida 
0054:  MOVLW  00
0056:  MOVWF  F95
....................    set_tris_b(0); 
0058:  MOVWF  F93
....................    output_b(0); 
005A:  CLRF   F8A
....................    output_d(0); 
005C:  CLRF   F8C
....................     
....................    byte const numbers[] = {0x3f, 0x06, 0x5b, 0x4f, 0x66, 0x6d, 0xfd, 0x07, 0xff, 0x67}; 
....................     
....................    while(TRUE){//inicia while 
....................        
....................       for(int x=0; x < 10; x++){     
005E:  CLRF   05
0060:  MOVF   05,W
0062:  SUBLW  09
0064:  BNC   00C0
....................   
....................          for(int i=0; i < 0x0a; i++){ //inicia for 
0066:  CLRF   06
0068:  MOVF   06,W
006A:  SUBLW  09
006C:  BNC   00BC
....................              
....................             delay_ms(10); 
006E:  MOVLW  0A
0070:  MOVWF  08
0072:  RCALL  001E
....................             for(int d=0; d<10; d++){ 
0074:  CLRF   07
0076:  MOVF   07,W
0078:  SUBLW  09
007A:  BNC   00B8
....................              
....................                output_b(0x01); //activo display de unidades 
007C:  MOVLW  01
007E:  MOVWF  F8A
....................                output_d(numbers[i]); //se ve en el display la unidad 
0080:  CLRF   03
0082:  MOVF   06,W
0084:  MOVFF  FF2,08
0088:  BCF    FF2.7
008A:  RCALL  0004
008C:  BTFSC  08.7
008E:  BSF    FF2.7
0090:  MOVWF  F8C
....................                delay_ms(100); 
0092:  MOVLW  64
0094:  MOVWF  08
0096:  RCALL  001E
....................                 
....................                output_b(0x02); 
0098:  MOVLW  02
009A:  MOVWF  F8A
....................                output_d(numbers[x]); 
009C:  CLRF   03
009E:  MOVF   05,W
00A0:  MOVFF  FF2,08
00A4:  BCF    FF2.7
00A6:  RCALL  0004
00A8:  BTFSC  08.7
00AA:  BSF    FF2.7
00AC:  MOVWF  F8C
....................                delay_ms(100); 
00AE:  MOVLW  64
00B0:  MOVWF  08
00B2:  RCALL  001E
00B4:  INCF   07,F
00B6:  BRA    0076
....................             } 
00B8:  INCF   06,F
00BA:  BRA    0068
....................          }// fin del for 
00BC:  INCF   05,F
00BE:  BRA    0060
....................           
....................       } 
00C0:  BRA    005E
....................        
....................    }//termina while 
....................  
.................... } 
....................  
00C2:  SLEEP 

Configuration Fuses:
   Word  1: CC04   PLL5 CPUDIV1 NOUSBDIV HS FCMEN IESO
   Word  2: 0E38   PUT NOBROWNOUT BORV21 VREGEN NOWDT WDT128
   Word  3: 8700   CCP2C1 PBADEN LPT1OSC MCLR
   Word  4: 00A1   STVREN NOLVP ICSP2 NOXINST NODEBUG
   Word  5: C00F   NOPROTECT NOCPB NOCPD
   Word  6: E00F   NOWRT NOWRTC NOWRTB NOWRTD
   Word  7: 400F   NOEBTR NOEBTRB
