CCS PCH C Compiler, Version 5.015, 5967               19-abr-18 13:29

               Filename:   C:\Users\VAIO\Desktop\class_micro\CCS C Projects\invertir_giro\invertir_giro.lst

               ROM used:   118 bytes (0%)
                           Largest free fragment is 32650
               RAM used:   5 (0%) at main() level
                           5 (0%) worst case
               Stack used: 1 locations
               Stack size: 31

*
0000:  GOTO   002A
.................... #include <invertir_giro.h> 
.................... #include <18LF4550.h> 
.................... //////////// Standard Header file for the PIC18LF4550 device //////////////// 
.................... /////////////////////////////////////////////////////////////////////////// 
.................... ////        (C) Copyright 1996, 2013 Custom Computer Services          //// 
.................... //// This source code may only be used by licensed users of the CCS C  //// 
.................... //// compiler.  This source code may only be distributed to other      //// 
.................... //// licensed users of the CCS C compiler.  No other use, reproduction //// 
.................... //// or distribution is permitted without written permission.          //// 
.................... //// Derivative programs created using this software in object code    //// 
.................... //// form are not restricted in any way.                               //// 
.................... /////////////////////////////////////////////////////////////////////////// 
.................... #device PIC18LF4550 
....................  
.................... #list 
....................  
.................... #device ADC=16 
....................  
.................... #FUSES NOWDT                 	//No Watch Dog Timer 
.................... #FUSES WDT128                	//Watch Dog Timer uses 1:128 Postscale 
.................... #FUSES NOBROWNOUT            	//No brownout reset 
.................... #FUSES NOLVP                 	//No low voltage prgming, B3(PIC16) or B5(PIC18) used for I/O 
.................... #FUSES NOXINST               	//Extended set extension and Indexed Addressing mode disabled (Legacy mode) 
....................  
.................... #use delay(crystal=20000000) 
0004:  CLRF   FEA
0006:  MOVLW  05
0008:  MOVWF  FE9
000A:  MOVF   FEF,W
000C:  BZ    0028
000E:  MOVLW  06
0010:  MOVWF  01
0012:  CLRF   00
0014:  DECFSZ 00,F
0016:  BRA    0014
0018:  DECFSZ 01,F
001A:  BRA    0012
001C:  MOVLW  7B
001E:  MOVWF  00
0020:  DECFSZ 00,F
0022:  BRA    0020
0024:  DECFSZ FEF,F
0026:  BRA    000E
0028:  RETURN 0
....................  
....................  
....................  
.................... #use fast_io(B) 
.................... #use fast_io(C) 
....................  
.................... void main() 
002A:  CLRF   FF8
002C:  BCF    FD0.7
002E:  MOVF   FC1,W
0030:  ANDLW  C0
0032:  IORLW  0F
0034:  MOVWF  FC1
0036:  MOVLW  07
0038:  MOVWF  FB4
.................... { 
....................     
....................    set_tris_b(255);  //configuración de pines como entrada PORTB 
003A:  MOVLW  FF
003C:  MOVWF  F93
....................    set_tris_c(0);    //configuración de pines como salida PORTC 
003E:  MOVLW  00
0040:  MOVWF  F94
....................    output_b(0); 
0042:  CLRF   F8A
....................    output_c(0);      //pongo a cero mi salida del PORT C 
0044:  CLRF   F8B
....................     
....................    while(TRUE) 
....................    { 
....................       if(input(PIN_B0) == 1 && !input(PIN_B1) ){ 
0046:  BTFSS  F81.0
0048:  BRA    005A
004A:  BTFSC  F81.1
004C:  BRA    005A
....................          output_high(PIN_C0); 
004E:  BSF    F8B.0
....................          output_low(PIN_C1); 
0050:  BCF    F8B.1
....................           
....................          delay_ms(5); 
0052:  MOVLW  05
0054:  MOVWF  05
0056:  RCALL  0004
....................       } 
0058:  BRA    005C
....................       else{ 
....................          output_c(0); 
005A:  CLRF   F8B
....................       } 
....................        
....................       if(input(PIN_B1) == 1 && !input(PIN_B0) ){ 
005C:  BTFSS  F81.1
005E:  BRA    0070
0060:  BTFSC  F81.0
0062:  BRA    0070
....................          output_low(PIN_C0); 
0064:  BCF    F8B.0
....................          output_high(PIN_C1); 
0066:  BSF    F8B.1
....................          delay_ms(5); 
0068:  MOVLW  05
006A:  MOVWF  05
006C:  RCALL  0004
....................           
....................       }else{ 
006E:  BRA    0072
....................          output_c(0); 
0070:  CLRF   F8B
....................       } 
0072:  BRA    0046
....................        
....................      /* if(input(PIN_B0) == 1 && input(PIN_B1) == 1){ //se puede optimizar el código 
....................          output_low(PIN_C0); 
....................          output_low(PIN_C1); 
....................           
....................          while(input(PIN_B0) == 1 && input(PIN_B1) == 1){} 
....................       }*/ 
....................    } 
....................  
.................... } 
0074:  SLEEP 

Configuration Fuses:
   Word  1: CC04   PLL5 CPUDIV1 NOUSBDIV HS FCMEN IESO
   Word  2: 0E38   PUT NOBROWNOUT BORV21 VREGEN NOWDT WDT128
   Word  3: 8700   CCP2C1 PBADEN LPT1OSC MCLR
   Word  4: 00A1   STVREN NOLVP ICSP2 NOXINST NODEBUG
   Word  5: C00F   NOPROTECT NOCPB NOCPD
   Word  6: E00F   NOWRT NOWRTC NOWRTB NOWRTD
   Word  7: 400F   NOEBTR NOEBTRB
