CCS PCH C Compiler, Version 5.015, 5967               01-abr-18 17:39

               Filename:   C:\Users\VAIO\Documents\class_micro\CCS C Projects\buzzer_pasivo\b_pasivo.lst

               ROM used:   136 bytes (0%)
                           Largest free fragment is 32632
               RAM used:   4 (0%) at main() level
                           7 (0%) worst case
               Stack used: 1 locations
               Stack size: 31

*
0000:  GOTO   002A
.................... #include <b_pasivo.h> 
.................... #include <18F4550.h> 
.................... //////////// Standard Header file for the PIC18F4550 device //////////////// 
.................... /////////////////////////////////////////////////////////////////////////// 
.................... ////        (C) Copyright 1996, 2013 Custom Computer Services          //// 
.................... //// This source code may only be used by licensed users of the CCS C  //// 
.................... //// compiler.  This source code may only be distributed to other      //// 
.................... //// licensed users of the CCS C compiler.  No other use, reproduction //// 
.................... //// or distribution is permitted without written permission.          //// 
.................... //// Derivative programs created using this software in object code    //// 
.................... //// form are not restricted in any way.                               //// 
.................... /////////////////////////////////////////////////////////////////////////// 
.................... #device PIC18F4550 
....................  
.................... #list 
....................  
.................... #device ADC=16 
....................  
.................... #FUSES NOWDT                 	//No Watch Dog Timer 
.................... #FUSES WDT128                	//Watch Dog Timer uses 1:128 Postscale 
.................... #FUSES NOBROWNOUT            	//No brownout reset 
.................... #FUSES NOLVP                 	//No low voltage prgming, B3(PIC16) or B5(PIC18) used for I/O 
.................... #FUSES NOXINST               	//Extended set extension and Indexed Addressing mode disabled (Legacy mode) 
....................  
.................... #use delay(crystal=20000000) 
0004:  CLRF   FEA
0006:  MOVLW  07
0008:  MOVWF  FE9
000A:  MOVF   FEF,W
000C:  BZ    0028
000E:  MOVLW  06
0010:  MOVWF  01
0012:  CLRF   00
0014:  DECFSZ 00,F
0016:  BRA    0014
0018:  DECFSZ 01,F
001A:  BRA    0012
001C:  MOVLW  7B
001E:  MOVWF  00
0020:  DECFSZ 00,F
0022:  BRA    0020
0024:  DECFSZ FEF,F
0026:  BRA    000E
0028:  RETURN 0
....................  
....................  
....................  
.................... #use fast_io(B) 
....................  
.................... void main() 
002A:  CLRF   FF8
002C:  BCF    FD0.7
002E:  MOVF   FC1,W
0030:  ANDLW  C0
0032:  IORLW  0F
0034:  MOVWF  FC1
0036:  MOVLW  07
0038:  MOVWF  FB4
.................... { 
....................  
....................    set_tris_b(0);//configuro mi puerto B como salida 
003A:  MOVLW  00
003C:  MOVWF  F93
....................    output_b(0);     //pongo a 0 todo el puerto 
003E:  CLRF   F8A
....................     
....................    while(TRUE) 
....................    { 
....................       for (int i = 0; i < 80; i++) {  // make a sound 
0040:  CLRF   05
0042:  MOVF   05,W
0044:  SUBLW  4F
0046:  BNC   005C
....................       output_high(PIN_B0); 
0048:  BSF    F8A.0
....................       delay_ms(1); // delay 1ms 
004A:  MOVLW  01
004C:  MOVWF  07
004E:  RCALL  0004
....................       output_low(PIN_B0); 
0050:  BCF    F8A.0
....................       delay_ms(1); 
0052:  MOVLW  01
0054:  MOVWF  07
0056:  RCALL  0004
0058:  INCF   05,F
005A:  BRA    0042
....................       } 
....................       delay_ms(50); 
005C:  MOVLW  32
005E:  MOVWF  07
0060:  RCALL  0004
....................        
....................       for (int j = 0; j < 100; j++) { //make another sound 
0062:  CLRF   06
0064:  MOVF   06,W
0066:  SUBLW  63
0068:  BNC   007E
....................          output_high(PIN_B0); 
006A:  BSF    F8A.0
....................          delay_ms(2); // delay 2ms 
006C:  MOVLW  02
006E:  MOVWF  07
0070:  RCALL  0004
....................          output_low(PIN_B0); 
0072:  BCF    F8A.0
....................          delay_ms(2); 
0074:  MOVLW  02
0076:  MOVWF  07
0078:  RCALL  0004
007A:  INCF   06,F
007C:  BRA    0064
....................       } 
....................        
....................       delay_ms(100); 
007E:  MOVLW  64
0080:  MOVWF  07
0082:  RCALL  0004
0084:  BRA    0040
....................    } 
....................  
.................... } 
0086:  SLEEP 

Configuration Fuses:
   Word  1: CC04   PLL5 CPUDIV1 NOUSBDIV HS FCMEN IESO
   Word  2: 0E38   PUT NOBROWNOUT BORV21 VREGEN NOWDT WDT128
   Word  3: 8700   CCP2C1 PBADEN LPT1OSC MCLR
   Word  4: 00A1   STVREN NOLVP ICSP2 NOXINST NODEBUG
   Word  5: C00F   NOPROTECT NOCPB NOCPD
   Word  6: E00F   NOWRT NOWRTC NOWRTB NOWRTD
   Word  7: 400F   NOEBTR NOEBTRB
