CCS PCH C Compiler, Version 5.015, 5967               10-abr-18 15:54

               Filename:   C:\Users\VAIO\Desktop\class_micro\CCS C Projects\semaforo\semaforo.lst

               ROM used:   154 bytes (0%)
                           Largest free fragment is 32614
               RAM used:   5 (0%) at main() level
                           6 (0%) worst case
               Stack used: 1 locations
               Stack size: 31

*
0000:  GOTO   002A
.................... #include <semaforo.h> 
.................... #include <18F4550.h> 
.................... //////////// Standard Header file for the PIC18F4550 device //////////////// 
.................... /////////////////////////////////////////////////////////////////////////// 
.................... ////        (C) Copyright 1996, 2013 Custom Computer Services          //// 
.................... //// This source code may only be used by licensed users of the CCS C  //// 
.................... //// compiler.  This source code may only be distributed to other      //// 
.................... //// licensed users of the CCS C compiler.  No other use, reproduction //// 
.................... //// or distribution is permitted without written permission.          //// 
.................... //// Derivative programs created using this software in object code    //// 
.................... //// form are not restricted in any way.                               //// 
.................... /////////////////////////////////////////////////////////////////////////// 
.................... #device PIC18F4550 
....................  
.................... #list 
....................  
.................... #device ADC=16 
....................  
.................... #FUSES NOWDT                 	//No Watch Dog Timer 
.................... #FUSES WDT128                	//Watch Dog Timer uses 1:128 Postscale 
.................... #FUSES NOBROWNOUT            	//No brownout reset 
.................... #FUSES NOLVP                 	//No low voltage prgming, B3(PIC16) or B5(PIC18) used for I/O 
.................... #FUSES NOXINST               	//Extended set extension and Indexed Addressing mode disabled (Legacy mode) 
....................  
.................... #use delay(crystal=20000000) 
0004:  CLRF   FEA
0006:  MOVLW  06
0008:  MOVWF  FE9
000A:  MOVF   FEF,W
000C:  BZ    0028
000E:  MOVLW  06
0010:  MOVWF  01
0012:  CLRF   00
0014:  DECFSZ 00,F
0016:  BRA    0014
0018:  DECFSZ 01,F
001A:  BRA    0012
001C:  MOVLW  7B
001E:  MOVWF  00
0020:  DECFSZ 00,F
0022:  BRA    0020
0024:  DECFSZ FEF,F
0026:  BRA    000E
0028:  RETURN 0
....................  
....................  
.................... #use fast_io(D) 
....................  
.................... void main() 
002A:  CLRF   FF8
002C:  BCF    FD0.7
002E:  MOVF   FC1,W
0030:  ANDLW  C0
0032:  IORLW  0F
0034:  MOVWF  FC1
0036:  MOVLW  07
0038:  MOVWF  FB4
.................... { 
....................  
....................    set_tris_d(0); 
003A:  MOVLW  00
003C:  MOVWF  F95
....................    output_d(0); 
003E:  CLRF   F8C
....................     
....................    while(TRUE) 
....................    { 
....................       output_high(PIN_D0); //prendido el rojo 
0040:  BSF    F8C.0
....................       delay_ms(500); 
0042:  MOVLW  02
0044:  MOVWF  05
0046:  MOVLW  FA
0048:  MOVWF  06
004A:  RCALL  0004
004C:  DECFSZ 05,F
004E:  BRA    0046
....................        
....................       output_low(PIN_D0); //apago el rojo 
0050:  BCF    F8C.0
....................       output_high(PIN_D2); //prendo el verde 
0052:  BSF    F8C.2
....................       delay_ms(400);  
0054:  MOVLW  02
0056:  MOVWF  05
0058:  MOVLW  C8
005A:  MOVWF  06
005C:  RCALL  0004
005E:  DECFSZ 05,F
0060:  BRA    0058
....................        
....................       output_low(PIN_D2); //parpadea el verde 
0062:  BCF    F8C.2
....................       delay_ms(100); 
0064:  MOVLW  64
0066:  MOVWF  06
0068:  RCALL  0004
....................       output_high(PIN_D2); 
006A:  BSF    F8C.2
....................       delay_ms(100); 
006C:  MOVLW  64
006E:  MOVWF  06
0070:  RCALL  0004
....................       output_low(PIN_D2); 
0072:  BCF    F8C.2
....................       delay_ms(100); 
0074:  MOVLW  64
0076:  MOVWF  06
0078:  RCALL  0004
....................       output_high(PIN_D2); 
007A:  BSF    F8C.2
....................       delay_ms(100); 
007C:  MOVLW  64
007E:  MOVWF  06
0080:  RCALL  0004
....................       output_low(PIN_D2); //apago el verde 
0082:  BCF    F8C.2
....................        
....................        
....................       output_high(PIN_D1); //prendo ambar 
0084:  BSF    F8C.1
....................       delay_ms(400); 
0086:  MOVLW  02
0088:  MOVWF  05
008A:  MOVLW  C8
008C:  MOVWF  06
008E:  RCALL  0004
0090:  DECFSZ 05,F
0092:  BRA    008A
....................       output_low(PIN_D1); //apago ambar 
0094:  BCF    F8C.1
0096:  BRA    0040
....................        
....................        
....................    } 
....................  
.................... } 
0098:  SLEEP 

Configuration Fuses:
   Word  1: CC04   PLL5 CPUDIV1 NOUSBDIV HS FCMEN IESO
   Word  2: 0E38   PUT NOBROWNOUT BORV21 VREGEN NOWDT WDT128
   Word  3: 8700   CCP2C1 PBADEN LPT1OSC MCLR
   Word  4: 00A1   STVREN NOLVP ICSP2 NOXINST NODEBUG
   Word  5: C00F   NOPROTECT NOCPB NOCPD
   Word  6: E00F   NOWRT NOWRTC NOWRTB NOWRTD
   Word  7: 400F   NOEBTR NOEBTRB
